; Function Attrs: nounwind uwtable
define range(i32 -2, -2147483648) i32 @EVP_PKEY_CTX_get0_ecdh_kdf_ukm(ptr noundef %0, ptr noundef %1) local_unnamed_addr #0 {
  %3 = alloca [2 x %struct.ossl_param_st], align 16
  %4 = alloca %struct.ossl_param_st, align 8
  call void @llvm.lifetime.start.p0(i64 80, ptr nonnull %3) #4
  %5 = icmp eq ptr %0, null
  br i1 %5, label %9, label %6

6:                                                ; preds = %2
  %7 = load i32, ptr %0, align 8, !tbaa !7
  %8 = and i32 %7, 2048
  %.not.i = icmp eq i32 %8, 0
  br i1 %.not.i, label %9, label %10

9:                                                ; preds = %6, %2
  tail call void @ERR_new() #4
  tail call void @ERR_set_debug(ptr noundef nonnull @.str.1, i32 noundef 27, ptr noundef nonnull @__func__.evp_pkey_ctx_getset_ecdh_param_checks) #4
  tail call void (i32, i32, ptr, ...) @ERR_set_error(i32 noundef 6, i32 noundef 147, ptr noundef null) #4
  br label %evp_pkey_ctx_getset_ecdh_param_checks.exit.thread

10:                                               ; preds = %6
  %11 = getelementptr inbounds nuw i8, ptr %0, i64 32
  %12 = load ptr, ptr %11, align 8, !tbaa !20
  %13 = icmp eq ptr %12, null
  br i1 %13, label %14, label %evp_pkey_ctx_getset_ecdh_param_checks.exit

14:                                               ; preds = %10
  %15 = getelementptr inbounds nuw i8, ptr %0, i64 120
  %16 = load ptr, ptr %15, align 8, !tbaa !21
  %.not7.i = icmp eq ptr %16, null
  br i1 %.not7.i, label %evp_pkey_ctx_getset_ecdh_param_checks.exit, label %17

17:                                               ; preds = %14
  %18 = load i32, ptr %16, align 8, !tbaa !22
  %.not8.i = icmp eq i32 %18, 408
  br i1 %.not8.i, label %evp_pkey_ctx_getset_ecdh_param_checks.exit, label %evp_pkey_ctx_getset_ecdh_param_checks.exit.thread

evp_pkey_ctx_getset_ecdh_param_checks.exit:       ; preds = %17, %14, %10
  %19 = getelementptr inbounds nuw i8, ptr %3, i64 40
  call void @OSSL_PARAM_construct_octet_ptr(ptr dead_on_unwind nonnull writable sret(%struct.ossl_param_st) align 8 %3, ptr noundef nonnull @.str.3, ptr noundef %1, i64 noundef 0) #4
  call void @llvm.lifetime.start.p0(i64 40, ptr nonnull %4) #4
  call void @OSSL_PARAM_construct_end(ptr dead_on_unwind nonnull writable sret(%struct.ossl_param_st) align 8 %4) #4
  call void @llvm.memcpy.p0.p0.i64(ptr noundef nonnull align 8 dereferenceable(40) %19, ptr noundef nonnull align 8 dereferenceable(40) %4, i64 40, i1 false), !tbaa.struct !24
  call void @llvm.lifetime.end.p0(i64 40, ptr nonnull %4) #4
  %20 = call i32 @evp_pkey_ctx_get_params_strict(ptr noundef nonnull %0, ptr noundef nonnull %3) #4
  switch i32 %20, label %evp_pkey_ctx_getset_ecdh_param_checks.exit.thread [
    i32 -2, label %21
    i32 1, label %22
  ]

21:                                               ; preds = %evp_pkey_ctx_getset_ecdh_param_checks.exit
  call void @ERR_new() #4
  call void @ERR_set_debug(ptr noundef nonnull @.str.1, i32 noundef 261, ptr noundef nonnull @__func__.EVP_PKEY_CTX_get0_ecdh_kdf_ukm) #4
  call void (i32, i32, ptr, ...) @ERR_set_error(i32 noundef 6, i32 noundef 147, ptr noundef null) #4
  br label %evp_pkey_ctx_getset_ecdh_param_checks.exit.thread

22:                                               ; preds = %evp_pkey_ctx_getset_ecdh_param_checks.exit
  %23 = getelementptr inbounds nuw i8, ptr %3, i64 32
  %24 = load i64, ptr %23, align 16, !tbaa !28
  %25 = icmp ult i64 %24, 2147483648
  %26 = trunc nuw nsw i64 %24 to i32
  %spec.select = select i1 %25, i32 %26, i32 -1
  br label %evp_pkey_ctx_getset_ecdh_param_checks.exit.thread

evp_pkey_ctx_getset_ecdh_param_checks.exit.thread: ; preds = %17, %9, %22, %21, %evp_pkey_ctx_getset_ecdh_param_checks.exit
  %.011 = phi i32 [ -2, %21 ], [ %spec.select, %22 ], [ -1, %evp_pkey_ctx_getset_ecdh_param_checks.exit ], [ -1, %17 ], [ -2, %9 ]
  call void @llvm.lifetime.end.p0(i64 80, ptr nonnull %3) #4
  ret i32 %.011
}